; Function Attrs: mustprogress uwtable
define internal noundef i32 @"_ZZZ32test_submodule_custom_type_setupRN8pybind117module_EENK3$_0clEP15_heaptypeobjectENUlP7_objectE_8__invokeES6_"(ptr noundef %0) #1 align 2 personality ptr @__gxx_personality_v0 {
  %2 = alloca %"class.pybind11::handle", align 8
  call void @llvm.lifetime.start.p0(i64 8, ptr nonnull %2)
  store ptr %0, ptr %2, align 8
  %3 = call fastcc noundef nonnull align 8 dereferenceable(8) ptr @_ZN8pybind114castIRN12_GLOBAL__N_117OwnsPythonObjectsETnNSt9enable_ifIXaantsr6detail11is_pyobjectIT_EE5valuentsr6detail22is_same_ignoring_cvrefIS5_P7_objectEE5valueEiE4typeELi0EEES5_RKNS_6handleE(ptr noundef nonnull align 8 dereferenceable(8) %2)
  %4 = load i64, ptr @_Py_NoneStruct, align 8
  %5 = add nsw i64 %4, 1
  store i64 %5, ptr @_Py_NoneStruct, align 8
  %6 = load ptr, ptr %3, align 8
  store ptr @_Py_NoneStruct, ptr %3, align 8
  %.not.i.i.i.i = icmp eq ptr %6, null
  br i1 %.not.i.i.i.i, label %"_ZZZ32test_submodule_custom_type_setupRN8pybind117module_EENK3$_0clEP15_heaptypeobjectENKUlP7_objectE_clES6_.exit", label %7

7:                                                ; preds = %1
  %8 = load i64, ptr %6, align 8
  %9 = add nsw i64 %8, -1
  store i64 %9, ptr %6, align 8
  %.not.i.i.i.i.i = icmp eq i64 %9, 0
  br i1 %.not.i.i.i.i.i, label %10, label %"_ZZZ32test_submodule_custom_type_setupRN8pybind117module_EENK3$_0clEP15_heaptypeobjectENKUlP7_objectE_clES6_.exit"

10:                                               ; preds = %7
  invoke void @_Py_Dealloc(ptr noundef nonnull %6)
          to label %"_ZZZ32test_submodule_custom_type_setupRN8pybind117module_EENK3$_0clEP15_heaptypeobjectENKUlP7_objectE_clES6_.exit" unwind label %11

11:                                               ; preds = %10
  %12 = landingpad { ptr, i32 }
          catch ptr null
  %13 = extractvalue { ptr, i32 } %12, 0
  tail call void @__clang_call_terminate(ptr %13) #26
  unreachable

"_ZZZ32test_submodule_custom_type_setupRN8pybind117module_EENK3$_0clEP15_heaptypeobjectENKUlP7_objectE_clES6_.exit": ; preds = %1, %7, %10
  call void @llvm.lifetime.end.p0(i64 8, ptr nonnull %2)
  ret i32 0
}